target datalayout = "e-m:e-p270:32:32-p271:32:32-p272:64:64-i64:64-i128:128-f80:128-n8:16:32:64-S128"
target triple = "x86_64-pc-linux-gnu"

%struct.quic_obj_st = type { %struct.ssl_st, ptr, ptr, ptr, ptr, ptr, i64, i8 }
%struct.ssl_st = type { i32, ptr, ptr, ptr, %struct.CRYPTO_REF_COUNT, ptr, %struct.crypto_ex_data_st }
%struct.CRYPTO_REF_COUNT = type { i32 }
%struct.crypto_ex_data_st = type { ptr, ptr }
%struct.qctx_st = type { ptr, ptr, ptr, ptr, ptr, i32, i32, i32, i32 }

@.str = private unnamed_addr constant [32 x i8] c"../openssl/ssl/quic/quic_impl.c\00", align 1
@__func__.ossl_quic_set_value_uint = private unnamed_addr constant [25 x i8] c"ossl_quic_set_value_uint\00", align 1
@__func__.qc_getset_event_handling = private unnamed_addr constant [25 x i8] c"qc_getset_event_handling\00", align 1

; Function Attrs: inlinehint nounwind uwtable
define internal ptr @ossl_quic_obj_get0_engine(ptr noundef %0) #3 {
  %2 = alloca ptr, align 8
  store ptr %0, ptr %2, align 8, !tbaa !172
  %3 = load ptr, ptr %2, align 8, !tbaa !172
  %4 = getelementptr inbounds nuw %struct.quic_obj_st, ptr %3, i32 0, i32 4
  %5 = load ptr, ptr %4, align 8, !tbaa !168
  ret ptr %5
}

; Function Attrs: inlinehint nounwind uwtable
define internal ptr @ossl_quic_obj_get0_mutex(ptr noundef %0) #3 {
  %2 = alloca ptr, align 8
  store ptr %0, ptr %2, align 8, !tbaa !172
  %3 = load ptr, ptr %2, align 8, !tbaa !172
  %4 = call ptr @ossl_quic_obj_get0_engine(ptr noundef %3)
  %5 = call ptr @ossl_quic_engine_get0_mutex(ptr noundef %4)
  ret ptr %5
}

; Function Attrs: nounwind uwtable
define internal void @qctx_unlock(ptr noundef %0) #0 {
  %2 = alloca ptr, align 8
  store ptr %0, ptr %2, align 8, !tbaa !119
  %3 = load ptr, ptr %2, align 8, !tbaa !119
  %4 = getelementptr inbounds nuw %struct.qctx_st, ptr %3, i32 0, i32 0
  %5 = load ptr, ptr %4, align 8, !tbaa !166
  %6 = call ptr @ossl_quic_obj_get0_mutex(ptr noundef %5)
  call void @ossl_crypto_mutex_unlock(ptr noundef %6)
  ret void
}

; Function Attrs: nounwind uwtable
define internal void @qctx_lock(ptr noundef %0) #0 {
  %2 = alloca ptr, align 8
  store ptr %0, ptr %2, align 8, !tbaa !119
  %3 = load ptr, ptr %2, align 8, !tbaa !119
  %4 = getelementptr inbounds nuw %struct.qctx_st, ptr %3, i32 0, i32 0
  %5 = load ptr, ptr %4, align 8, !tbaa !166
  %6 = call ptr @ossl_quic_obj_get0_mutex(ptr noundef %5)
  call void @ossl_crypto_mutex_lock(ptr noundef %6)
  ret void
}

; Function Attrs: nounwind uwtable
define internal i32 @expect_quic_conn_only(ptr noundef %0, ptr noundef %1) #0 {
  %3 = alloca ptr, align 8
  %4 = alloca ptr, align 8
  store ptr %0, ptr %3, align 8, !tbaa !136
  store ptr %1, ptr %4, align 8, !tbaa !119
  %5 = load ptr, ptr %3, align 8, !tbaa !136
  %6 = load ptr, ptr %4, align 8, !tbaa !119
  %7 = call i32 @expect_quic_as(ptr noundef %5, ptr noundef %6, i32 noundef 1)
  ret i32 %7
}

; Function Attrs: nounwind uwtable
define internal i32 @expect_quic_cs(ptr noundef %0, ptr noundef %1) #0 {
  %3 = alloca ptr, align 8
  %4 = alloca ptr, align 8
  store ptr %0, ptr %3, align 8, !tbaa !136
  store ptr %1, ptr %4, align 8, !tbaa !119
  %5 = load ptr, ptr %3, align 8, !tbaa !136
  %6 = load ptr, ptr %4, align 8, !tbaa !119
  %7 = call i32 @expect_quic_as(ptr noundef %5, ptr noundef %6, i32 noundef 3)
  ret i32 %7
}

; Function Attrs: nounwind uwtable
define internal i32 @qc_getset_event_handling(ptr noundef %0, i32 noundef %1, ptr noundef %2, ptr noundef %3) #0 {
  %5 = alloca ptr, align 8
  %6 = alloca i32, align 4
  %7 = alloca ptr, align 8
  %8 = alloca ptr, align 8
  %9 = alloca i32, align 4
  %10 = alloca i64, align 8
  store ptr %0, ptr %5, align 8, !tbaa !119
  store i32 %1, ptr %6, align 4, !tbaa !122
  store ptr %2, ptr %7, align 8, !tbaa !209
  store ptr %3, ptr %8, align 8, !tbaa !209
  call void @llvm.lifetime.start.p0(i64 4, ptr %9) #10
  store i32 0, ptr %9, align 4, !tbaa !122
  call void @llvm.lifetime.start.p0(i64 8, ptr %10) #10
  store i64 0, ptr %10, align 8, !tbaa !169
  %11 = load ptr, ptr %5, align 8, !tbaa !119
  call void @qctx_lock(ptr noundef %11)
  %12 = load i32, ptr %6, align 4, !tbaa !122
  %13 = icmp ne i32 %12, 0
  br i1 %13, label %14, label %17

14:                                               ; preds = %4
  %15 = load ptr, ptr %5, align 8, !tbaa !119
  %16 = call i32 (ptr, ptr, i32, ptr, i32, ptr, ...) @quic_raise_non_normal_error(ptr noundef %15, ptr noundef @.str, i32 noundef 3639, ptr noundef @__func__.qc_getset_event_handling, i32 noundef 415, ptr noundef null)
  br label %53

17:                                               ; preds = %4
  %18 = load ptr, ptr %8, align 8, !tbaa !209
  %19 = icmp ne ptr %18, null
  br i1 %19, label %20, label %42

20:                                               ; preds = %17
  %21 = load ptr, ptr %8, align 8, !tbaa !209
  %22 = load i64, ptr %21, align 8, !tbaa !169
  switch i64 %22, label %24 [
    i64 0, label %23
    i64 1, label %23
    i64 2, label %23
  ]

23:                                               ; preds = %20, %20, %20
  br label %27

24:                                               ; preds = %20
  %25 = load ptr, ptr %5, align 8, !tbaa !119
  %26 = call i32 (ptr, ptr, i32, ptr, i32, ptr, ...) @quic_raise_non_normal_error(ptr noundef %25, ptr noundef @.str, i32 noundef 3651, ptr noundef @__func__.qc_getset_event_handling, i32 noundef 524550, ptr noundef null)
  br label %53

27:                                               ; preds = %23
  %28 = load ptr, ptr %8, align 8, !tbaa !209
  %29 = load i64, ptr %28, align 8, !tbaa !169
  store i64 %29, ptr %10, align 8, !tbaa !169
  %30 = load i64, ptr %10, align 8, !tbaa !169
  %31 = trunc i64 %30 to i32
  %32 = load ptr, ptr %5, align 8, !tbaa !119
  %33 = getelementptr inbounds nuw %struct.qctx_st, ptr %32, i32 0, i32 0
  %34 = load ptr, ptr %33, align 8, !tbaa !166
  %35 = getelementptr inbounds nuw %struct.quic_obj_st, ptr %34, i32 0, i32 7
  %36 = trunc i32 %31 to i8
  %37 = load i8, ptr %35, align 8
  %38 = and i8 %36, 3
  %39 = shl i8 %38, 5
  %40 = and i8 %37, -97
  %41 = or i8 %40, %39
  store i8 %41, ptr %35, align 8
  br label %52

42:                                               ; preds = %17
  %43 = load ptr, ptr %5, align 8, !tbaa !119
  %44 = getelementptr inbounds nuw %struct.qctx_st, ptr %43, i32 0, i32 0
  %45 = load ptr, ptr %44, align 8, !tbaa !166
  %46 = getelementptr inbounds nuw %struct.quic_obj_st, ptr %45, i32 0, i32 7
  %47 = load i8, ptr %46, align 8
  %48 = lshr i8 %47, 5
  %49 = and i8 %48, 3
  %50 = zext i8 %49 to i32
  %51 = zext i32 %50 to i64
  store i64 %51, ptr %10, align 8, !tbaa !169
  br label %52

52:                                               ; preds = %42, %27
  store i32 1, ptr %9, align 4, !tbaa !122
  br label %53

53:                                               ; preds = %52, %24, %14
  %54 = load ptr, ptr %5, align 8, !tbaa !119
  call void @qctx_unlock(ptr noundef %54)
  %55 = load i32, ptr %9, align 4, !tbaa !122
  %56 = icmp ne i32 %55, 0
  br i1 %56, label %57, label %63

57:                                               ; preds = %53
  %58 = load ptr, ptr %7, align 8, !tbaa !209
  %59 = icmp ne ptr %58, null
  br i1 %59, label %60, label %63

60:                                               ; preds = %57
  %61 = load i64, ptr %10, align 8, !tbaa !169
  %62 = load ptr, ptr %7, align 8, !tbaa !209
  store i64 %61, ptr %62, align 8, !tbaa !169
  br label %63

63:                                               ; preds = %60, %57, %53
  %64 = load i32, ptr %9, align 4, !tbaa !122
  call void @llvm.lifetime.end.p0(i64 8, ptr %10) #10
  call void @llvm.lifetime.end.p0(i64 4, ptr %9) #10
  ret i32 %64
}

; Function Attrs: nounwind uwtable
define internal i32 @expect_quic_for_value(ptr noundef %0, ptr noundef %1, i32 noundef %2) #0 {
  %4 = alloca i32, align 4
  %5 = alloca ptr, align 8
  %6 = alloca ptr, align 8
  %7 = alloca i32, align 4
  store ptr %0, ptr %5, align 8, !tbaa !136
  store ptr %1, ptr %6, align 8, !tbaa !119
  store i32 %2, ptr %7, align 4, !tbaa !122
  %8 = load i32, ptr %7, align 4, !tbaa !122
  switch i32 %8, label %13 [
    i32 6, label %9
    i32 7, label %9
    i32 8, label %9
    i32 9, label %9
  ]

9:                                                ; preds = %3, %3, %3, %3
  %10 = load ptr, ptr %5, align 8, !tbaa !136
  %11 = load ptr, ptr %6, align 8, !tbaa !119
  %12 = call i32 @expect_quic_cs(ptr noundef %10, ptr noundef %11)
  store i32 %12, ptr %4, align 4
  br label %17

13:                                               ; preds = %3
  %14 = load ptr, ptr %5, align 8, !tbaa !136
  %15 = load ptr, ptr %6, align 8, !tbaa !119
  %16 = call i32 @expect_quic_conn_only(ptr noundef %14, ptr noundef %15)
  store i32 %16, ptr %4, align 4
  br label %17

17:                                               ; preds = %13, %9
  %18 = load i32, ptr %4, align 4
  ret i32 %18
}

; Function Attrs: nounwind uwtable
define i32 @ossl_quic_set_value_uint(ptr noundef %0, i32 noundef %1, i32 noundef %2, i64 noundef %3) #0 {
  %5 = alloca i32, align 4
  %6 = alloca ptr, align 8
  %7 = alloca i32, align 4
  %8 = alloca i32, align 4
  %9 = alloca i64, align 8
  %10 = alloca %struct.qctx_st, align 8
  %11 = alloca i32, align 4
  store ptr %0, ptr %6, align 8, !tbaa !136
  store i32 %1, ptr %7, align 4, !tbaa !122
  store i32 %2, ptr %8, align 4, !tbaa !122
  store i64 %3, ptr %9, align 8, !tbaa !169
  call void @llvm.lifetime.start.p0(i64 56, ptr %10) #10
  %12 = load ptr, ptr %6, align 8, !tbaa !136
  %13 = load i32, ptr %8, align 4, !tbaa !122
  %14 = call i32 @expect_quic_for_value(ptr noundef %12, ptr noundef %10, i32 noundef %13)
  %15 = icmp ne i32 %14, 0
  br i1 %15, label %17, label %16

16:                                               ; preds = %4
  store i32 0, ptr %5, align 4
  store i32 1, ptr %11, align 4
  br label %27

17:                                               ; preds = %4
  %18 = load i32, ptr %8, align 4, !tbaa !122
  switch i32 %18, label %25 [
    i32 5, label %19
    i32 6, label %22
  ]

19:                                               ; preds = %17
  %20 = load i32, ptr %7, align 4, !tbaa !122
  %21 = call i32 @qc_getset_idle_timeout(ptr noundef %10, i32 noundef %20, ptr noundef null, ptr noundef %9)
  store i32 %21, ptr %5, align 4
  store i32 1, ptr %11, align 4
  br label %27

22:                                               ; preds = %17
  %23 = load i32, ptr %7, align 4, !tbaa !122
  %24 = call i32 @qc_getset_event_handling(ptr noundef %10, i32 noundef %23, ptr noundef null, ptr noundef %9)
  store i32 %24, ptr %5, align 4
  store i32 1, ptr %11, align 4
  br label %27

25:                                               ; preds = %17
  %26 = call i32 (ptr, ptr, i32, ptr, i32, ptr, ...) @quic_raise_non_normal_error(ptr noundef %10, ptr noundef @.str, i32 noundef 3785, ptr noundef @__func__.ossl_quic_set_value_uint, i32 noundef 414, ptr noundef null)
  store i32 %26, ptr %5, align 4
  store i32 1, ptr %11, align 4
  br label %27

27:                                               ; preds = %25, %22, %19, %16
  call void @llvm.lifetime.end.p0(i64 56, ptr %10) #10
  %28 = load i32, ptr %5, align 4
  ret i32 %28
}