; Function Attrs: nounwind uwtable
define range(i32 0, 2) i32 @ossl_quic_set_value_uint(ptr noundef %0, i32 noundef %1, i32 noundef %2, i64 noundef %3) local_unnamed_addr #0 {
  %5 = alloca i64, align 8
  %6 = alloca %struct.qctx_st, align 8
  store i64 %3, ptr %5, align 8, !tbaa !160
  call void @llvm.lifetime.start.p0(i64 56, ptr nonnull %6) #12
  %.off.i = add i32 %2, -6
  %switch.i = icmp ult i32 %.off.i, 4
  %..i = select i1 %switch.i, i32 3, i32 1
  %7 = call fastcc range(i32 0, 2) i32 @expect_quic_as(ptr noundef %0, ptr noundef nonnull %6, i32 noundef %..i)
  %.not = icmp eq i32 %7, 0
  br i1 %.not, label %28, label %8

8:                                                ; preds = %4
  switch i32 %2, label %27 [
    i32 5, label %9
    i32 6, label %11
  ]

9:                                                ; preds = %8
  %10 = call fastcc i32 @qc_getset_idle_timeout(ptr noundef %6, i32 noundef %1, ptr noundef null, ptr noundef nonnull %5)
  br label %28

11:                                               ; preds = %8
  %.val.i = load ptr, ptr %6, align 8, !tbaa !157
  %12 = getelementptr i8, ptr %.val.i, i64 88
  %.val.val.i = load ptr, ptr %12, align 8, !tbaa !143
  %13 = call ptr @ossl_quic_engine_get0_mutex(ptr noundef %.val.val.i) #12
  call void @ossl_crypto_mutex_lock(ptr noundef %13) #12
  %.not.i = icmp eq i32 %1, 0
  br i1 %.not.i, label %15, label %14

14:                                               ; preds = %11
  call void (ptr, ptr, i32, ptr, i32, ptr, ...) @quic_raise_non_normal_error(ptr noundef nonnull %6, ptr nonnull poison, i32 noundef 3639, ptr noundef nonnull @__func__.qc_getset_event_handling, i32 noundef 415, ptr noundef null)
  br label %qc_getset_event_handling.exit

15:                                               ; preds = %11
  %switch.i5 = icmp ult i64 %3, 3
  br i1 %switch.i5, label %17, label %16

16:                                               ; preds = %15
  call void (ptr, ptr, i32, ptr, i32, ptr, ...) @quic_raise_non_normal_error(ptr noundef nonnull %6, ptr nonnull poison, i32 noundef 3651, ptr noundef nonnull @__func__.qc_getset_event_handling, i32 noundef 524550, ptr noundef null)
  br label %qc_getset_event_handling.exit

17:                                               ; preds = %15
  %18 = load ptr, ptr %6, align 8, !tbaa !157
  %19 = getelementptr inbounds nuw i8, ptr %18, i64 112
  %20 = trunc nuw i64 %3 to i8
  %21 = load i8, ptr %19, align 8
  %22 = shl nuw nsw i8 %20, 5
  %23 = and i8 %21, -97
  %24 = or disjoint i8 %23, %22
  store i8 %24, ptr %19, align 8
  br label %qc_getset_event_handling.exit

qc_getset_event_handling.exit:                    ; preds = %14, %16, %17
  %.016.i = phi i32 [ 0, %14 ], [ 0, %16 ], [ 1, %17 ]
  %.val20.i = load ptr, ptr %6, align 8, !tbaa !157
  %25 = getelementptr i8, ptr %.val20.i, i64 88
  %.val20.val.i = load ptr, ptr %25, align 8, !tbaa !143
  %26 = call ptr @ossl_quic_engine_get0_mutex(ptr noundef %.val20.val.i) #12
  call void @ossl_crypto_mutex_unlock(ptr noundef %26) #12
  br label %28

27:                                               ; preds = %8
  call void (ptr, ptr, i32, ptr, i32, ptr, ...) @quic_raise_non_normal_error(ptr noundef nonnull %6, ptr nonnull poison, i32 noundef 3785, ptr noundef nonnull @__func__.ossl_quic_set_value_uint, i32 noundef 414, ptr noundef null)
  br label %28

28:                                               ; preds = %4, %27, %qc_getset_event_handling.exit, %9
  %.0 = phi i32 [ 0, %27 ], [ %.016.i, %qc_getset_event_handling.exit ], [ %10, %9 ], [ 0, %4 ]
  call void @llvm.lifetime.end.p0(i64 56, ptr nonnull %6) #12
  ret i32 %.0
}